target datalayout = "e-m:e-p270:32:32-p271:32:32-p272:64:64-i64:64-i128:128-f80:128-n8:16:32:64-S128"
target triple = "x86_64-pc-linux-gnu"

%struct.ERR_string_data_st = type { i64, ptr }

@err_string_lock = internal global ptr null, align 8
@int_error_hash = internal global ptr null, align 8
@err_string_init = internal global i32 0, align 4
@do_err_strings_init_ossl_ret_ = internal global i32 0, align 4

; Function Attrs: inlinehint nounwind uwtable
define internal ptr @ossl_check_const_ERR_STRING_DATA_lh_plain_type(ptr noundef %0) #2 {
  %2 = alloca ptr, align 8
  store ptr %0, ptr %2, align 8, !tbaa !19
  %3 = load ptr, ptr %2, align 8, !tbaa !19
  ret ptr %3
}

; Function Attrs: inlinehint nounwind uwtable
define internal ptr @ossl_check_ERR_STRING_DATA_lh_type(ptr noundef %0) #2 {
  %2 = alloca ptr, align 8
  store ptr %0, ptr %2, align 8, !tbaa !17
  %3 = load ptr, ptr %2, align 8, !tbaa !17
  ret ptr %3
}

; Function Attrs: nounwind uwtable
define internal ptr @int_err_get_item(ptr noundef %0) #0 {
  %2 = alloca ptr, align 8
  %3 = alloca ptr, align 8
  %4 = alloca ptr, align 8
  %5 = alloca i32, align 4
  store ptr %0, ptr %3, align 8, !tbaa !19
  call void @llvm.lifetime.start.p0(i64 8, ptr %4) #8
  store ptr null, ptr %4, align 8, !tbaa !19
  %6 = load ptr, ptr @err_string_lock, align 8, !tbaa !16
  %7 = call i32 @CRYPTO_THREAD_read_lock(ptr noundef %6)
  %8 = icmp ne i32 %7, 0
  br i1 %8, label %10, label %9

9:                                                ; preds = %1
  store ptr null, ptr %2, align 8
  store i32 1, ptr %5, align 4
  br label %19

10:                                               ; preds = %1
  %11 = load ptr, ptr @int_error_hash, align 8, !tbaa !17
  %12 = call ptr @ossl_check_ERR_STRING_DATA_lh_type(ptr noundef %11)
  %13 = load ptr, ptr %3, align 8, !tbaa !19
  %14 = call ptr @ossl_check_const_ERR_STRING_DATA_lh_plain_type(ptr noundef %13)
  %15 = call ptr @OPENSSL_LH_retrieve(ptr noundef %12, ptr noundef %14)
  store ptr %15, ptr %4, align 8, !tbaa !19
  %16 = load ptr, ptr @err_string_lock, align 8, !tbaa !16
  %17 = call i32 @CRYPTO_THREAD_unlock(ptr noundef %16)
  %18 = load ptr, ptr %4, align 8, !tbaa !19
  store ptr %18, ptr %2, align 8
  store i32 1, ptr %5, align 4
  br label %19

19:                                               ; preds = %10, %9
  call void @llvm.lifetime.end.p0(i64 8, ptr %4) #8
  %20 = load ptr, ptr %2, align 8
  ret ptr %20
}

; Function Attrs: inlinehint nounwind uwtable
define internal i32 @ERR_GET_REASON(i64 noundef %0) #2 {
  %2 = alloca i32, align 4
  %3 = alloca i64, align 8
  store i64 %0, ptr %3, align 8, !tbaa !12
  %4 = load i64, ptr %3, align 8, !tbaa !12
  %5 = and i64 %4, 2147483648
  %6 = icmp ne i64 %5, 0
  br i1 %6, label %7, label %11

7:                                                ; preds = %1
  %8 = load i64, ptr %3, align 8, !tbaa !12
  %9 = and i64 %8, 2147483647
  %10 = trunc i64 %9 to i32
  store i32 %10, ptr %2, align 4
  br label %15

11:                                               ; preds = %1
  %12 = load i64, ptr %3, align 8, !tbaa !12
  %13 = and i64 %12, 8388607
  %14 = trunc i64 %13 to i32
  store i32 %14, ptr %2, align 4
  br label %15

15:                                               ; preds = %11, %7
  %16 = load i32, ptr %2, align 4
  ret i32 %16
}

; Function Attrs: inlinehint nounwind uwtable
define internal i32 @ERR_GET_LIB(i64 noundef %0) #2 {
  %2 = alloca i32, align 4
  %3 = alloca i64, align 8
  store i64 %0, ptr %3, align 8, !tbaa !12
  %4 = load i64, ptr %3, align 8, !tbaa !12
  %5 = and i64 %4, 2147483648
  %6 = icmp ne i64 %5, 0
  br i1 %6, label %7, label %8

7:                                                ; preds = %1
  store i32 2, ptr %2, align 4
  br label %13

8:                                                ; preds = %1
  %9 = load i64, ptr %3, align 8, !tbaa !12
  %10 = lshr i64 %9, 23
  %11 = and i64 %10, 255
  %12 = trunc i64 %11 to i32
  store i32 %12, ptr %2, align 4
  br label %13

13:                                               ; preds = %8, %7
  %14 = load i32, ptr %2, align 4
  ret i32 %14
}

; Function Attrs: nounwind uwtable
define ptr @ERR_reason_error_string(i64 noundef %0) #0 {
  %2 = alloca ptr, align 8
  %3 = alloca i64, align 8
  %4 = alloca %struct.ERR_string_data_st, align 8
  %5 = alloca ptr, align 8
  %6 = alloca i64, align 8
  %7 = alloca i64, align 8
  %8 = alloca i32, align 4
  store i64 %0, ptr %3, align 8, !tbaa !12
  call void @llvm.lifetime.start.p0(i64 16, ptr %4) #8
  call void @llvm.lifetime.start.p0(i64 8, ptr %5) #8
  store ptr null, ptr %5, align 8, !tbaa !19
  call void @llvm.lifetime.start.p0(i64 8, ptr %6) #8
  call void @llvm.lifetime.start.p0(i64 8, ptr %7) #8
  %9 = call i32 @CRYPTO_THREAD_run_once(ptr noundef @err_string_init, ptr noundef @do_err_strings_init_ossl_)
  %10 = icmp ne i32 %9, 0
  br i1 %10, label %11, label %14

11:                                               ; preds = %1
  %12 = load i32, ptr @do_err_strings_init_ossl_ret_, align 4, !tbaa !8
  %13 = icmp ne i32 %12, 0
  br i1 %13, label %16, label %15

14:                                               ; preds = %1
  br i1 false, label %16, label %15

15:                                               ; preds = %14, %11
  store ptr null, ptr %2, align 8
  store i32 1, ptr %8, align 4
  br label %54

16:                                               ; preds = %14, %11
  %17 = load i64, ptr %3, align 8, !tbaa !12
  %18 = and i64 %17, 2147483648
  %19 = icmp ne i64 %18, 0
  br i1 %19, label %20, label %21

20:                                               ; preds = %16
  store ptr null, ptr %2, align 8
  store i32 1, ptr %8, align 4
  br label %54

21:                                               ; preds = %16
  %22 = load i64, ptr %3, align 8, !tbaa !12
  %23 = call i32 @ERR_GET_LIB(i64 noundef %22)
  %24 = sext i32 %23 to i64
  store i64 %24, ptr %6, align 8, !tbaa !12
  %25 = load i64, ptr %3, align 8, !tbaa !12
  %26 = call i32 @ERR_GET_REASON(i64 noundef %25)
  %27 = sext i32 %26 to i64
  store i64 %27, ptr %7, align 8, !tbaa !12
  %28 = load i64, ptr %6, align 8, !tbaa !12
  %29 = and i64 %28, 255
  %30 = shl i64 %29, 23
  %31 = load i64, ptr %7, align 8, !tbaa !12
  %32 = and i64 %31, 8388607
  %33 = or i64 %30, %32
  %34 = getelementptr inbounds nuw %struct.ERR_string_data_st, ptr %4, i32 0, i32 0
  store i64 %33, ptr %34, align 8, !tbaa !21
  %35 = call ptr @int_err_get_item(ptr noundef %4)
  store ptr %35, ptr %5, align 8, !tbaa !19
  %36 = load ptr, ptr %5, align 8, !tbaa !19
  %37 = icmp eq ptr %36, null
  br i1 %37, label %38, label %44

38:                                               ; preds = %21
  %39 = load i64, ptr %7, align 8, !tbaa !12
  %40 = and i64 %39, 8388607
  %41 = or i64 0, %40
  %42 = getelementptr inbounds nuw %struct.ERR_string_data_st, ptr %4, i32 0, i32 0
  store i64 %41, ptr %42, align 8, !tbaa !21
  %43 = call ptr @int_err_get_item(ptr noundef %4)
  store ptr %43, ptr %5, align 8, !tbaa !19
  br label %44

44:                                               ; preds = %38, %21
  %45 = load ptr, ptr %5, align 8, !tbaa !19
  %46 = icmp eq ptr %45, null
  br i1 %46, label %47, label %48

47:                                               ; preds = %44
  br label %52

48:                                               ; preds = %44
  %49 = load ptr, ptr %5, align 8, !tbaa !19
  %50 = getelementptr inbounds nuw %struct.ERR_string_data_st, ptr %49, i32 0, i32 1
  %51 = load ptr, ptr %50, align 8, !tbaa !35
  br label %52

52:                                               ; preds = %48, %47
  %53 = phi ptr [ null, %47 ], [ %51, %48 ]
  store ptr %53, ptr %2, align 8
  store i32 1, ptr %8, align 4
  br label %54

54:                                               ; preds = %52, %20, %15
  call void @llvm.lifetime.end.p0(i64 8, ptr %7) #8
  call void @llvm.lifetime.end.p0(i64 8, ptr %6) #8
  call void @llvm.lifetime.end.p0(i64 8, ptr %5) #8
  call void @llvm.lifetime.end.p0(i64 16, ptr %4) #8
  %55 = load ptr, ptr %2, align 8
  ret ptr %55
}