; Function Attrs: nounwind uwtable
define ptr @ERR_reason_error_string(i64 noundef %0) local_unnamed_addr #0 {
  %2 = alloca %struct.ERR_string_data_st, align 8
  call void @llvm.lifetime.start.p0(i64 16, ptr nonnull %2) #10
  %3 = tail call i32 @CRYPTO_THREAD_run_once(ptr noundef nonnull @err_string_init, ptr noundef nonnull @do_err_strings_init_ossl_) #10
  %4 = icmp ne i32 %3, 0
  %5 = load i32, ptr @do_err_strings_init_ossl_ret_, align 4
  %6 = icmp ne i32 %5, 0
  %or.cond = select i1 %4, i1 %6, i1 false
  %7 = and i64 %0, 2147483648
  %.not = icmp eq i64 %7, 0
  %or.cond12 = and i1 %.not, %or.cond
  br i1 %or.cond12, label %8, label %int_err_get_item.exit19.thread

8:                                                ; preds = %1
  %.0.i14 = and i64 %0, 8388607
  %9 = and i64 %0, 2147483647
  store i64 %9, ptr %2, align 8, !tbaa !17
  %10 = load ptr, ptr @err_string_lock, align 8, !tbaa !14
  %11 = tail call i32 @CRYPTO_THREAD_read_lock(ptr noundef %10) #10
  %.not.i15 = icmp eq i32 %11, 0
  br i1 %.not.i15, label %int_err_get_item.exit.thread, label %int_err_get_item.exit

int_err_get_item.exit:                            ; preds = %8
  %12 = load ptr, ptr @int_error_hash, align 8, !tbaa !15
  %13 = call ptr @OPENSSL_LH_retrieve(ptr noundef %12, ptr noundef nonnull %2) #10
  %14 = load ptr, ptr @err_string_lock, align 8, !tbaa !14
  %15 = call i32 @CRYPTO_THREAD_unlock(ptr noundef %14) #10
  %16 = icmp eq ptr %13, null
  br i1 %16, label %int_err_get_item.exit.thread, label %int_err_get_item.exit19.thread22

int_err_get_item.exit.thread:                     ; preds = %8, %int_err_get_item.exit
  store i64 %.0.i14, ptr %2, align 8, !tbaa !17
  %17 = load ptr, ptr @err_string_lock, align 8, !tbaa !14
  %18 = call i32 @CRYPTO_THREAD_read_lock(ptr noundef %17) #10
  %.not.i17 = icmp eq i32 %18, 0
  br i1 %.not.i17, label %int_err_get_item.exit19.thread, label %int_err_get_item.exit19

int_err_get_item.exit19:                          ; preds = %int_err_get_item.exit.thread
  %19 = load ptr, ptr @int_error_hash, align 8, !tbaa !15
  %20 = call ptr @OPENSSL_LH_retrieve(ptr noundef %19, ptr noundef nonnull %2) #10
  %21 = load ptr, ptr @err_string_lock, align 8, !tbaa !14
  %22 = call i32 @CRYPTO_THREAD_unlock(ptr noundef %21) #10
  %23 = icmp eq ptr %20, null
  br i1 %23, label %int_err_get_item.exit19.thread, label %int_err_get_item.exit19.thread22

int_err_get_item.exit19.thread22:                 ; preds = %int_err_get_item.exit, %int_err_get_item.exit19
  %.01024 = phi ptr [ %20, %int_err_get_item.exit19 ], [ %13, %int_err_get_item.exit ]
  %24 = getelementptr inbounds nuw i8, ptr %.01024, i64 8
  %25 = load ptr, ptr %24, align 8, !tbaa !28
  br label %int_err_get_item.exit19.thread

int_err_get_item.exit19.thread:                   ; preds = %int_err_get_item.exit.thread, %int_err_get_item.exit19.thread22, %int_err_get_item.exit19, %1
  %.0 = phi ptr [ null, %1 ], [ %25, %int_err_get_item.exit19.thread22 ], [ null, %int_err_get_item.exit19 ], [ null, %int_err_get_item.exit.thread ]
  call void @llvm.lifetime.end.p0(i64 16, ptr nonnull %2) #10
  ret ptr %.0
}